(lp1
S'http://www.youtube.com/watch?v=aB8ShS19WFs'
p2
aS'http://www.youtube.com/watch?v=RQr3Hc06zPv'
p3
aS'http://www.youtube.com/watch?v=68HPMkqGCJw'
p4
aS'http://www.youtube.com/watch?v=a6ayXkMeJZQ'
p5
aS'http://www.youtube.com/watch?v=9REpc0UOOjZ'
p6
aS'http://www.youtube.com/watch?v=59FO0ahPHg0'
p7
aS'http://www.youtube.com/watch?v=Sm2UgxYhZy9'
p8
aS'http://www.youtube.com/watch?v=jIwK1pKoqlQ'
p9
aS'http://www.youtube.com/watch?v=x7GJw91eX8D'
p10
aS'http://www.youtube.com/watch?v=klkA2AYtBJP'
p11
aS'http://www.youtube.com/watch?v=dYj8uUFXTj2'
p12
aS'http://www.youtube.com/watch?v=kA5Wq4GAydi'
p13
aS'http://www.youtube.com/watch?v=TzLaDIFUKBR'
p14
aS'http://www.youtube.com/watch?v=jcEh2fDu9ni'
p15
aS'http://www.youtube.com/watch?v=klMNsImiI0r'
p16
aS'http://www.youtube.com/watch?v=6ot6W27fWQL'
p17
aS'http://www.youtube.com/watch?v=vt1l04r3PoA'
p18
aS'http://www.youtube.com/watch?v=8EHDGGPX193'
p19
aS'http://www.youtube.com/watch?v=Kf4nz3r8vFa'
p20
aS'http://www.youtube.com/watch?v=zTCmxZPJ0lJ'
p21
aS'http://www.youtube.com/watch?v=E2YRuBwQfCj'
p22
aS'http://www.youtube.com/watch?v=gEhuDbiY2Pv'
p23
aS'http://www.youtube.com/watch?v=RXCkMAuZyCJ'
p24
aS'http://www.youtube.com/watch?v=0FKq1GYXFxf'
p25
aS'http://www.youtube.com/watch?v=ybbG83NK5FR'
p26
aS'http://www.youtube.com/watch?v=zW0rq6e7Cg8'
p27
aS'http://www.youtube.com/watch?v=UszJmlA7hgz'
p28
aS'http://www.youtube.com/watch?v=d9OCwQr9brp'
p29
aS'http://www.youtube.com/watch?v=Aj23aL0LXyR'
p30
aS'http://www.youtube.com/watch?v=F5CN4TSlk6C'
p31
aS'http://www.youtube.com/watch?v=mcOnYtgJXdg'
p32
aS'http://www.youtube.com/watch?v=cDyo6HL9DSc'
p33
aS'http://www.youtube.com/watch?v=x4uMBmdmUyg'
p34
aS'http://www.youtube.com/watch?v=tCCAXVTrawC'
p35
aS'http://www.youtube.com/watch?v=KxVXXTmhfQx'
p36
aS'http://www.youtube.com/watch?v=yVGL2CvJMmQ'
p37
aS'http://www.youtube.com/watch?v=LvAzXRuEnS1'
p38
aS'http://www.youtube.com/watch?v=0hSt8Ol2cL5'
p39
aS'http://www.youtube.com/watch?v=y85EgaO1QEf'
p40
aS'http://www.youtube.com/watch?v=LjzlNUizDbR'
p41
aS'http://www.youtube.com/watch?v=BqoHWOyp4qB'
p42
aS'http://www.youtube.com/watch?v=iGSe0Zl5Y8P'
p43
aS'http://www.youtube.com/watch?v=qSbHMRCiklf'
p44
aS'http://www.youtube.com/watch?v=s8OTF8XyYo3'
p45
aS'http://www.youtube.com/watch?v=S8x91sBwf5O'
p46
aS'http://www.youtube.com/watch?v=UfFTbM5ZH3M'
p47
aS'http://www.youtube.com/watch?v=M8JJssU37Mk'
p48
aS'http://www.youtube.com/watch?v=t3LhfoZMqQq'
p49
aS'http://www.youtube.com/watch?v=K3FIcCAVBev'
p50
aS'http://www.youtube.com/watch?v=I21GqhGusPj'
p51
aS'http://www.youtube.com/watch?v=sn9jvo0S1S0'
p52
aS'http://www.youtube.com/watch?v=OnMAqtW1vBN'
p53
aS'http://www.youtube.com/watch?v=OuVB3cxcgrE'
p54
aS'http://www.youtube.com/watch?v=6pntalmldBL'
p55
aS'http://www.youtube.com/watch?v=X0v3AzXjUm6'
p56
aS'http://www.youtube.com/watch?v=fKuxiJuSmP6'
p57
aS'http://www.youtube.com/watch?v=K6oyZpacoUt'
p58
aS'http://www.youtube.com/watch?v=arlPMSCWmF0'
p59
aS'http://www.youtube.com/watch?v=pucCLwjT2it'
p60
aS'http://www.youtube.com/watch?v=QedjQA0IZSd'
p61
aS'http://www.youtube.com/watch?v=1hFJoMfiDlu'
p62
aS'http://www.youtube.com/watch?v=Upvy2OScasw'
p63
aS'http://www.youtube.com/watch?v=3zSaUYvHoEZ'
p64
aS'http://www.youtube.com/watch?v=0erHiJQtIRD'
p65
aS'http://www.youtube.com/watch?v=eqVLNQtjTIO'
p66
aS'http://www.youtube.com/watch?v=Ep6vpUXW1rU'
p67
aS'http://www.youtube.com/watch?v=sw5saZYKTBS'
p68
aS'http://www.youtube.com/watch?v=nZDfvYu4MCT'
p69
aS'http://www.youtube.com/watch?v=0uZcog4Nj9K'
p70
aS'http://www.youtube.com/watch?v=UZUJfsgEqM6'
p71
aS'http://www.youtube.com/watch?v=lR9IRMrEUSo'
p72
aS'http://www.youtube.com/watch?v=co9dn7koq0o'
p73
aS'http://www.youtube.com/watch?v=vOioH71GEob'
p74
aS'http://www.youtube.com/watch?v=WxTenTQjnD0'
p75
aS'http://www.youtube.com/watch?v=thX3Ql3MmK2'
p76
aS'http://www.youtube.com/watch?v=MMlbmORyvKt'
p77
aS'http://www.youtube.com/watch?v=i64mOtPhZkJ'
p78
aS'http://www.youtube.com/watch?v=IJCdUXdeGTq'
p79
aS'http://www.youtube.com/watch?v=DOICGNrpqaF'
p80
aS'http://www.youtube.com/watch?v=Knn8jzdY1HB'
p81
aS'http://www.youtube.com/watch?v=Xo7mZpX4CWX'
p82
aS'http://www.youtube.com/watch?v=zkhpOgcanDp'
p83
aS'http://www.youtube.com/watch?v=i8jzAthsX7N'
p84
aS'http://www.youtube.com/watch?v=4mlhpQWve3M'
p85
aS'http://www.youtube.com/watch?v=OAZayzwiTDv'
p86
aS'http://www.youtube.com/watch?v=a2ZqrtZzLE4'
p87
aS'http://www.youtube.com/watch?v=BdGDyMzzuu8'
p88
aS'http://www.youtube.com/watch?v=CRssJBlceMF'
p89
aS'http://www.youtube.com/watch?v=s9OFgxCltKs'
p90
aS'http://www.youtube.com/watch?v=octm0bfbo9M'
p91
aS'http://www.youtube.com/watch?v=F8kHpTx5Z1B'
p92
aS'http://www.youtube.com/watch?v=69n6G1NufPk'
p93
aS'http://www.youtube.com/watch?v=2rgZjjlTT4F'
p94
aS'http://www.youtube.com/watch?v=I1OndjpuCet'
p95
aS'http://www.youtube.com/watch?v=VEGyeNyfpRR'
p96
aS'http://www.youtube.com/watch?v=f60YsG61gwz'
p97
aS'http://www.youtube.com/watch?v=6502Gx1rh4k'
p98
aS'http://www.youtube.com/watch?v=liGyOhBi5EW'
p99
aS'http://www.youtube.com/watch?v=YRDP8J1PKQb'
p100
aS'http://www.youtube.com/watch?v=93ZjhxbQ71d'
p101
aS'http://www.youtube.com/watch?v=H22fJGb8gGC'
p102
aS'http://www.youtube.com/watch?v=Rxm873jVjI0'
p103
aS'http://www.youtube.com/watch?v=D0sbhU3z9yx'
p104
aS'http://www.youtube.com/watch?v=TVdHZtTH8ud'
p105
aS'http://www.youtube.com/watch?v=8Kav9PUk5KW'
p106
aS'http://www.youtube.com/watch?v=JtpYso3mPFa'
p107
aS'http://www.youtube.com/watch?v=rw7dMkqJeXL'
p108
aS'http://www.youtube.com/watch?v=VEFu7ozcevb'
p109
aS'http://www.youtube.com/watch?v=coXuwdCd2FQ'
p110
aS'http://www.youtube.com/watch?v=RmtBvvWCwQn'
p111
aS'http://www.youtube.com/watch?v=35yQmWPBgS1'
p112
aS'http://www.youtube.com/watch?v=Hz9SXqhEj7B'
p113
aS'http://www.youtube.com/watch?v=dEFTUrKeUnX'
p114
aS'http://www.youtube.com/watch?v=BWlM2XtSrRA'
p115
aS'http://www.youtube.com/watch?v=mDJMM9pXG4r'
p116
aS'http://www.youtube.com/watch?v=JW480cmte89'
p117
aS'http://www.youtube.com/watch?v=eNQgb7fkdOh'
p118
aS'http://www.youtube.com/watch?v=NA7d0g4vvkP'
p119
aS'http://www.youtube.com/watch?v=Mc8To2OBiPe'
p120
aS'http://www.youtube.com/watch?v=CBfMOh0k8sz'
p121
aS'http://www.youtube.com/watch?v=msf9iycEruf'
p122
aS'http://www.youtube.com/watch?v=zu4SsmTflRA'
p123
aS'http://www.youtube.com/watch?v=t6rAMIBNxWD'
p124
aS'http://www.youtube.com/watch?v=pBQa8caCMpl'
p125
aS'http://www.youtube.com/watch?v=Rm7iwaJHqJC'
p126
aS'http://www.youtube.com/watch?v=03Zp67H7fld'
p127
aS'http://www.youtube.com/watch?v=wet4gQPXHqR'
p128
aS'http://www.youtube.com/watch?v=2V1vT4SgCgW'
p129
aS'http://www.youtube.com/watch?v=r2g1jresEBH'
p130
aS'http://www.youtube.com/watch?v=zqQQflvgqCZ'
p131
aS'http://www.youtube.com/watch?v=PLV2xoVQwOt'
p132
aS'http://www.youtube.com/watch?v=vXz768JhNqx'
p133
aS'http://www.youtube.com/watch?v=aGGdP8xQhWM'
p134
aS'http://www.youtube.com/watch?v=7RP5r0hrs1P'
p135
aS'http://www.youtube.com/watch?v=KEkwbzMcuZ3'
p136
aS'http://www.youtube.com/watch?v=AfKeS3WWeFl'
p137
aS'http://www.youtube.com/watch?v=QOf1echIh7m'
p138
aS'http://www.youtube.com/watch?v=TEMMAd8mZzB'
p139
aS'http://www.youtube.com/watch?v=LCiN8yZiBdv'
p140
aS'http://www.youtube.com/watch?v=G377HrkKoFJ'
p141
aS'http://www.youtube.com/watch?v=WfDZtOf6qSc'
p142
aS'http://www.youtube.com/watch?v=cB9P1Vf2ecp'
p143
aS'http://www.youtube.com/watch?v=p4JO9iyGlSa'
p144
aS'http://www.youtube.com/watch?v=yYSESmaV7Xw'
p145
aS'http://www.youtube.com/watch?v=PfKJKIlzYgT'
p146
aS'http://www.youtube.com/watch?v=VUpNFEtLCwi'
p147
aS'http://www.youtube.com/watch?v=FSwPEVfEwd8'
p148
aS'http://www.youtube.com/watch?v=lEWXIPquzsI'
p149
aS'http://www.youtube.com/watch?v=7yX7DFhHRJa'
p150
aS'http://www.youtube.com/watch?v=PjF1IiJrIh8'
p151
aS'http://www.youtube.com/watch?v=yevHFh71jMO'
p152
aS'http://www.youtube.com/watch?v=OOfR8DotmoG'
p153
aS'http://www.youtube.com/watch?v=vHG7F8yHuDT'
p154
aS'http://www.youtube.com/watch?v=xHcmtqD7siv'
p155
aS'http://www.youtube.com/watch?v=PxAFcf5svlp'
p156
aS'http://www.youtube.com/watch?v=GxxCwekMGY2'
p157
aS'http://www.youtube.com/watch?v=CvBklCds3sc'
p158
aS'http://www.youtube.com/watch?v=0l07IkQL2oF'
p159
aS'http://www.youtube.com/watch?v=tSupj4IkrGc'
p160
aS'http://www.youtube.com/watch?v=6JtlKCw7r0F'
p161
aS'http://www.youtube.com/watch?v=ljpOC9OZB0j'
p162
aS'http://www.youtube.com/watch?v=eKqwaAwfwnD'
p163
aS'http://www.youtube.com/watch?v=2Y9MvCxA8tm'
p164
aS'http://www.youtube.com/watch?v=tXvC4S31JRy'
p165
aS'http://www.youtube.com/watch?v=xZ147nchzuB'
p166
aS'http://www.youtube.com/watch?v=cveZbkyxJSv'
p167
aS'http://www.youtube.com/watch?v=vBhhKx1Ld9c'
p168
aS'http://www.youtube.com/watch?v=6z1cxhF83Hj'
p169
aS'http://www.youtube.com/watch?v=bUNLnJAidjB'
p170
aS'http://www.youtube.com/watch?v=G5wMZoyUHiE'
p171
aS'http://www.youtube.com/watch?v=uPRsygRC9Eu'
p172
aS'http://www.youtube.com/watch?v=A4QjqDrHDIF'
p173
aS'http://www.youtube.com/watch?v=JkKmiP9VfNN'
p174
aS'http://www.youtube.com/watch?v=61orRd847I3'
p175
aS'http://www.youtube.com/watch?v=wmHpMjYpYjL'
p176
aS'http://www.youtube.com/watch?v=BM7afqtzAbD'
p177
aS'http://www.youtube.com/watch?v=EA3tZ6_i-X6'
p178
aS'http://www.youtube.com/watch?v=V-sdSXjr2p_'
p179
aS'http://www.youtube.com/watch?v=szn06ktLiwp'
p180
aS'http://www.youtube.com/watch?v=5ZFVqUzDt8w'
p181
aS'http://www.youtube.com/watch?v=31uW5zOOW4-'
p182
aS'http://www.youtube.com/watch?v=1PR9rN0k09c'
p183
aS'http://www.youtube.com/watch?v=bDlu2arx6K-'
p184
aS'http://www.youtube.com/watch?v=zWdx23Be7oV'
p185
aS'http://www.youtube.com/watch?v=q1fGKY4WLcm'
p186
aS'http://www.youtube.com/watch?v=FI2Ldd9Z-8K'
p187
aS'http://www.youtube.com/watch?v=xiqw4x6HOoy'
p188
aS'http://www.youtube.com/watch?v=ry5byNKFE7X'
p189
aS'http://www.youtube.com/watch?v=rxBEu9DWxKq'
p190
aS'http://www.youtube.com/watch?v=h5N1h2m0CiV'
p191
aS'http://www.youtube.com/watch?v=GHTEMdbJMft'
p192
aS'http://www.youtube.com/watch?v=vSpP5mWaTP4'
p193
aS'http://www.youtube.com/watch?v=Uot3LwfFHUV'
p194
aS'http://www.youtube.com/watch?v=Emz-YNtZwwa'
p195
aS'http://www.youtube.com/watch?v=Nv9TsIaUbGr'
p196
aS'http://www.youtube.com/watch?v=3sn_hJD5fii'
p197
aS'http://www.youtube.com/watch?v=H0X_CWLyUE_'
p198
aS'http://www.youtube.com/watch?v=4i5EIdSu5X_'
p199
aS'http://www.youtube.com/watch?v=lCp1wNaAVuf'
p200
aS'http://www.youtube.com/watch?v=YSujZkMqFO4'
p201
aS'http://www.youtube.com/watch?v=_cDWvpbRuQ_'
p202
aS'http://www.youtube.com/watch?v=BysY-Gwx-1Z'
p203
aS'http://www.youtube.com/watch?v=gFi-BPesNgm'
p204
aS'http://www.youtube.com/watch?v=XTeUc93IbSf'
p205
aS'http://www.youtube.com/watch?v=x99cQATBOyh'
p206
aS'http://www.youtube.com/watch?v=9wOo83AOcum'
p207
aS'http://www.youtube.com/watch?v=cZDTHDFZsCy'
p208
aS'http://www.youtube.com/watch?v=UyNLa88ZDgn'
p209
aS'http://www.youtube.com/watch?v=gRIro-A8lg4'
p210
aS'http://www.youtube.com/watch?v=is4iFkzQ2OS'
p211
aS'http://www.youtube.com/watch?v=vUGS_gr9N1G'
p212
aS'http://www.youtube.com/watch?v=Qs2TC5Fqt9n'
p213
aS'http://www.youtube.com/watch?v=6euhJ7PT7BE'
p214
aS'http://www.youtube.com/watch?v=3GV_XoNmVvp'
p215
aS'http://www.youtube.com/watch?v=m1PmqTNnZ5z'
p216
aS'http://www.youtube.com/watch?v=v2HvUl82RZh'
p217
aS'http://www.youtube.com/watch?v=u6puCSx9eqo'
p218
aS'http://www.youtube.com/watch?v=GifagCePlvr'
p219
aS'http://www.youtube.com/watch?v=41b6s3rplwi'
p220
aS'http://www.youtube.com/watch?v=SCHeujywgGE'
p221
aS'http://www.youtube.com/watch?v=qScWlIyviqh'
p222
aS'http://www.youtube.com/watch?v=7nnLtpyCilw'
p223
aS'http://www.youtube.com/watch?v=5Cw7OIkxRQv'
p224
aS'http://www.youtube.com/watch?v=YFTK_QFVwOR'
p225
aS'http://www.youtube.com/watch?v=LOtzm6hBqhC'
p226
aS'http://www.youtube.com/watch?v=auQ6T6bMm_O'
p227
aS'http://www.youtube.com/watch?v=eSp0Nw8KjXy'
p228
aS'http://www.youtube.com/watch?v=KQNY7Xouihk'
p229
aS'http://www.youtube.com/watch?v=JojHx64CSyS'
p230
aS'http://www.youtube.com/watch?v=6MbyuRXMgbE'
p231
aS'http://www.youtube.com/watch?v=l4GuziWztS3'
p232
aS'http://www.youtube.com/watch?v=mhBcngdw0Qk'
p233
aS'http://www.youtube.com/watch?v=QGWe690wxl1'
p234
aS'http://www.youtube.com/watch?v=3n2MdcOdshP'
p235
aS'http://www.youtube.com/watch?v=BuqD1oHirCU'
p236
aS'http://www.youtube.com/watch?v=_aG6hZNEWoZ'
p237
aS'http://www.youtube.com/watch?v=YHkrDWQNWtY'
p238
aS'http://www.youtube.com/watch?v=tBCdMDdpiuH'
p239
aS'http://www.youtube.com/watch?v=JYbKktlXC6M'
p240
aS'http://www.youtube.com/watch?v=gzCfK9LcStA'
p241
aS'http://www.youtube.com/watch?v=yjvIMDdPgiT'
p242
aS'http://www.youtube.com/watch?v=2D-GmC5hdL0'
p243
aS'http://www.youtube.com/watch?v=UuFqJyIK-yD'
p244
aS'http://www.youtube.com/watch?v=Erf8eVbYVIL'
p245
aS'http://www.youtube.com/watch?v=Pmxjs9rIJn7'
p246
aS'http://www.youtube.com/watch?v=LR7NBbAElzs'
p247
aS'http://www.youtube.com/watch?v=F553NFMCuU-'
p248
aS'http://www.youtube.com/watch?v=BAJSfxSaxfM'
p249
aS'http://www.youtube.com/watch?v=CUr8vsKMDYo'
p250
aS'http://www.youtube.com/watch?v=UeUr5sSo5qd'
p251
aS'http://www.youtube.com/watch?v=BGzcskK_NcE'
p252
aS'http://www.youtube.com/watch?v=GFUn1Vd8_fw'
p253
aS'http://www.youtube.com/watch?v=PmanknH8D4e'
p254
aS'http://www.youtube.com/watch?v=bmKnbNjs892'
p255
aS'http://www.youtube.com/watch?v=btKfDiq7z-S'
p256
aS'http://www.youtube.com/watch?v=cJf2fczx2cN'
p257
aS'http://www.youtube.com/watch?v=jC4XLHfKzvJ'
p258
aS'http://www.youtube.com/watch?v=L1IOyyDllIE'
p259
aS'http://www.youtube.com/watch?v=RC-EwvlHiZ3'
p260
aS'http://www.youtube.com/watch?v=mWuUdqJ29j8'
p261
aS'http://www.youtube.com/watch?v=1XMNnm7s6kO'
p262
aS'http://www.youtube.com/watch?v=t7w4r6aI3oS'
p263
aS'http://www.youtube.com/watch?v=o6r5kuT8cwT'
p264
aS'http://www.youtube.com/watch?v=Z32YFdm76pi'
p265
aS'http://www.youtube.com/watch?v=ayOtcTf85nR'
p266
aS'http://www.youtube.com/watch?v=RreKuBp6JUr'
p267
aS'http://www.youtube.com/watch?v=_yAzUGzDLsZ'
p268
aS'http://www.youtube.com/watch?v=1gAo2FV49xR'
p269
aS'http://www.youtube.com/watch?v=KOFVEPnMq5U'
p270
aS'http://www.youtube.com/watch?v=0gXoguWGHfi'
p271
aS'http://www.youtube.com/watch?v=vUYQKaI9w2S'
p272
aS'http://www.youtube.com/watch?v=0KCwVYTMX2T'
p273
aS'http://www.youtube.com/watch?v=ZQFPFD9onxu'
p274
aS'http://www.youtube.com/watch?v=JbGFjGxG27s'
p275
aS'http://www.youtube.com/watch?v=Q3lO4nV5rnz'
p276
aS'http://www.youtube.com/watch?v=Lik3LTpzQaX'
p277
aS'http://www.youtube.com/watch?v=67OEp5ONtt-'
p278
aS'http://www.youtube.com/watch?v=OQz9Qgrc0Tv'
p279
aS'http://www.youtube.com/watch?v=NHnDv5381V7'
p280
aS'http://www.youtube.com/watch?v=vUDD967pdn8'
p281
aS'http://www.youtube.com/watch?v=um7jNekkMO-'
p282
aS'http://www.youtube.com/watch?v=uCCZP9W22YR'
p283
aS'http://www.youtube.com/watch?v=SKju_DE0baj'
p284
aS'http://www.youtube.com/watch?v=nA2vTPDaNN-'
p285
aS'http://www.youtube.com/watch?v=79ujZ0oStmv'
p286
aS'http://www.youtube.com/watch?v=HEBjC7N8lx1'
p287
aS'http://www.youtube.com/watch?v=6ouR3GvDd1A'
p288
aS'http://www.youtube.com/watch?v=_QToea8g8UV'
p289
aS'http://www.youtube.com/watch?v=4uWx8oSK6Tu'
p290
aS'http://www.youtube.com/watch?v=d0ea4sVpiQY'
p291
aS'http://www.youtube.com/watch?v=xy4kiGzt2aH'
p292
aS'http://www.youtube.com/watch?v=oxBSDj1TQv0'
p293
aS'http://www.youtube.com/watch?v=MSn8ZFRimOJ'
p294
aS'http://www.youtube.com/watch?v=55LKc_WtQIp'
p295
aS'http://www.youtube.com/watch?v=0c1GipWX0jR'
p296
aS'http://www.youtube.com/watch?v=RJPciXobjUH'
p297
aS'http://www.youtube.com/watch?v=aR2SeJ6Ks_m'
p298
aS'http://www.youtube.com/watch?v=KnOzNrs7vbc'
p299
aS'http://www.youtube.com/watch?v=KPp23MtkYLR'
p300
aS'http://www.youtube.com/watch?v=PUZSXEn1ufK'
p301
aS'http://www.youtube.com/watch?v=-kX9IiKI7kx'
p302
aS'http://www.youtube.com/watch?v=SZGGPUbR79K'
p303
aS'http://www.youtube.com/watch?v=0_4e9_lL53t'
p304
aS'http://www.youtube.com/watch?v=-M_qd4oWCwF'
p305
aS'http://www.youtube.com/watch?v=6sxYb8FldUn'
p306
aS'http://www.youtube.com/watch?v=u0eWKpsyww-'
p307
aS'http://www.youtube.com/watch?v=5vNZSRY3VJr'
p308
aS'http://www.youtube.com/watch?v=WqPF8qvlX-7'
p309
aS'http://www.youtube.com/watch?v=ePpNZM-bVGX'
p310
aS'http://www.youtube.com/watch?v=FXRgcJNt9hn'
p311
aS'http://www.youtube.com/watch?v=U5liK1_Qkt7'
p312
aS'http://www.youtube.com/watch?v=UjCjU5sFYAs'
p313
aS'http://www.youtube.com/watch?v=9yXxOU277ls'
p314
aS'http://www.youtube.com/watch?v=Cv-zm3XLWyz'
p315
aS'http://www.youtube.com/watch?v=YrRZQWxYlEF'
p316
aS'http://www.youtube.com/watch?v=0wIW7vLspDb'
p317
aS'http://www.youtube.com/watch?v=eLvxGd4ECpx'
p318
aS'http://www.youtube.com/watch?v=3692ihj2lH9'
p319
aS'http://www.youtube.com/watch?v=Chfib0E4PvC'
p320
aS'http://www.youtube.com/watch?v=n-xaOZ8ktrl'
p321
aS'http://www.youtube.com/watch?v=7GyCvM4pAVc'
p322
aS'http://www.youtube.com/watch?v=bQyQs2hSery'
p323
aS'http://www.youtube.com/watch?v=SCTZmPK6epX'
p324
aS'http://www.youtube.com/watch?v=pCSU3Ve8vKs'
p325
aS'http://www.youtube.com/watch?v=LOXcvGONOs1'
p326
aS'http://www.youtube.com/watch?v=pvXobNbGqcP'
p327
aS'http://www.youtube.com/watch?v=k9fqmRAdh3V'
p328
aS'http://www.youtube.com/watch?v=8nZNVUsBc0A'
p329
aS'http://www.youtube.com/watch?v=VZGvZ5vzRLu'
p330
aS'http://www.youtube.com/watch?v=H-594lyVM0u'
p331
aS'http://www.youtube.com/watch?v=qWdL5OZWjV3'
p332
aS'http://www.youtube.com/watch?v=rUNy25sH_St'
p333
aS'http://www.youtube.com/watch?v=uUpvN6oOKER'
p334
aS'http://www.youtube.com/watch?v=O8XgRJDPFQ4'
p335
aS'http://www.youtube.com/watch?v=fm-GzzWlMKD'
p336
aS'http://www.youtube.com/watch?v=knG5E11WG1n'
p337
aS'http://www.youtube.com/watch?v=Xy_Jb1-4nkQ'
p338
aS'http://www.youtube.com/watch?v=Z_AaokZycku'
p339
aS'http://www.youtube.com/watch?v=Wn-LceumbCw'
p340
aS'http://www.youtube.com/watch?v=wAALX9Z2CsB'
p341
aS'http://www.youtube.com/watch?v=aYhRYU0hZis'
p342
aS'http://www.youtube.com/watch?v=LFSQCnwVCIv'
p343
aS'http://www.youtube.com/watch?v=Qc1zVxCz2d4'
p344
aS'http://www.youtube.com/watch?v=2hMOpGreNCp'
p345
aS'http://www.youtube.com/watch?v=cJ50kXm9Xo2'
p346
aS'http://www.youtube.com/watch?v=P7WQ_Tuz-LF'
p347
aS'http://www.youtube.com/watch?v=a6g5870Vo1k'
p348
aS'http://www.youtube.com/watch?v=uzSN-Oum3PU'
p349
aS'http://www.youtube.com/watch?v=AmP1HZ8e5oo'
p350
aS'http://www.youtube.com/watch?v=r-igrY6sNks'
p351
aS'http://www.youtube.com/watch?v=UwKrBPb_9zT'
p352
aS'http://www.youtube.com/watch?v=bCRaSEKmL_B'
p353
aS'http://www.youtube.com/watch?v=FEkL0-E9wSQ'
p354
aS'http://www.youtube.com/watch?v=scBNQu9QtqV'
p355
aS'http://www.youtube.com/watch?v=3rmCto0ek5k'
p356
aS'http://www.youtube.com/watch?v=fuWxroGJGzr'
p357
aS'http://www.youtube.com/watch?v=DGMIxXP1vhp'
p358
aS'http://www.youtube.com/watch?v=dJ3LHLisYoT'
p359
aS'http://www.youtube.com/watch?v=336PhiGnsl2'
p360
aS'http://www.youtube.com/watch?v=NGZJ6VNDiyL'
p361
aS'http://www.youtube.com/watch?v=yuoP-ZIdrSS'
p362
aS'http://www.youtube.com/watch?v=ypxAd0VTIas'
p363
aS'http://www.youtube.com/watch?v=gY-yIRpkLEx'
p364
aS'http://www.youtube.com/watch?v=kJn8NMFEcwV'
p365
aS'http://www.youtube.com/watch?v=N9g--_jgU13'
p366
aS'http://www.youtube.com/watch?v=G3girtJbDzy'
p367
aS'http://www.youtube.com/watch?v=kRYV7XXPnJ9'
p368
aS'http://www.youtube.com/watch?v=4gyPB2MbTeH'
p369
aS'http://www.youtube.com/watch?v=PLIw2qK9nlR'
p370
aS'http://www.youtube.com/watch?v=ltZis_Bbvut'
p371
aS'http://www.youtube.com/watch?v=Z1OIl8ucBc4'
p372
aS'http://www.youtube.com/watch?v=S6D6Zy9iOF4'
p373
aS'http://www.youtube.com/watch?v=i8ylBb4Kpb6'
p374
aS'http://www.youtube.com/watch?v=rm6ko4qMpEj'
p375
aS'http://www.youtube.com/watch?v=bQMEyGWW4Ln'
p376
aS'http://www.youtube.com/watch?v=4wooQXb87uW'
p377
aS'http://www.youtube.com/watch?v=9SAKo9lgRWl'
p378
aS'http://www.youtube.com/watch?v=pL0cVnNZ38g'
p379
aS'http://www.youtube.com/watch?v=YHhHzd53fC7'
p380
aS'http://www.youtube.com/watch?v=yUokhWQ0RRC'
p381
aS'http://www.youtube.com/watch?v=KlrC2wVWSlu'
p382
aS'http://www.youtube.com/watch?v=rrfgMXNYhLB'
p383
aS'http://www.youtube.com/watch?v=UhSa4lpOmaP'
p384
aS'http://www.youtube.com/watch?v=m4xwEG8Vo39'
p385
aS'http://www.youtube.com/watch?v=VCkvpk8hYki'
p386
aS'http://www.youtube.com/watch?v=S6nYvJ2KyOC'
p387
aS'http://www.youtube.com/watch?v=NYq_csllNyw'
p388
aS'http://www.youtube.com/watch?v=abdU6aNG-9G'
p389
aS'http://www.youtube.com/watch?v=1RoE2Lrc3NJ'
p390
aS'http://www.youtube.com/watch?v=-u-AN5YKFwV'
p391
aS'http://www.youtube.com/watch?v=oRLSfG7qtJQ'
p392
aS'http://www.youtube.com/watch?v=fMzfYTX1_MR'
p393
aS'http://www.youtube.com/watch?v=uVVml-CeeOB'
p394
aS'http://www.youtube.com/watch?v=XPEUxHhJlDQ'
p395
aS'http://www.youtube.com/watch?v=t6IHA_yj6LZ'
p396
aS'http://www.youtube.com/watch?v=8N37AO86nF2'
p397
aS'http://www.youtube.com/watch?v=uUKTGfmXMG3'
p398
aS'http://www.youtube.com/watch?v=duT6KwbuYWc'
p399
aS'http://www.youtube.com/watch?v=5BkozK9aafS'
p400
aS'http://www.youtube.com/watch?v=USzQR4demss'
p401
aS'http://www.youtube.com/watch?v=I0TMZYBRyEa'
p402
aS'http://www.youtube.com/watch?v=rPPadOS4vpW'
p403
aS'http://www.youtube.com/watch?v=8vj9MxnMD87'
p404
aS'http://www.youtube.com/watch?v=5SKLKTiHypp'
p405
aS'http://www.youtube.com/watch?v=qbkUFocFzeV'
p406
aS'http://www.youtube.com/watch?v=aYjyyFEfWj8'
p407
aS'http://www.youtube.com/watch?v=LdkmWSs2wXb'
p408
aS'http://www.youtube.com/watch?v=IPanMbc69Hk'
p409
aS'http://www.youtube.com/watch?v=wr5K3Qo0a_r'
p410
aS'http://www.youtube.com/watch?v=9VQlM0crpvr'
p411
aS'http://www.youtube.com/watch?v=cuGrXDXSJmA'
p412
aS'http://www.youtube.com/watch?v=GBliEIRQIGH'
p413
aS'http://www.youtube.com/watch?v=BRcbDDKJxMm'
p414
aS'http://www.youtube.com/watch?v=yGr5dJqkDv4'
p415
aS'http://www.youtube.com/watch?v=cwRMe88gYYJ'
p416
aS'http://www.youtube.com/watch?v=SQ-nMsct352'
p417
aS'http://www.youtube.com/watch?v=ogiLOaIu67l'
p418
aS'http://www.youtube.com/watch?v=5elP8c3M0Yo'
p419
aS'http://www.youtube.com/watch?v=5L0-UiQrd3v'
p420
aS'http://www.youtube.com/watch?v=Jd_yzQOICU7'
p421
aS'http://www.youtube.com/watch?v=y3BZ3dAUAnd'
p422
aS'http://www.youtube.com/watch?v=421NMMa802M'
p423
aS'http://www.youtube.com/watch?v=nXYYuukKS8r'
p424
aS'http://www.youtube.com/watch?v=lvfg4XMv_jM'
p425
aS'http://www.youtube.com/watch?v=cdFH3fpO4Gc'
p426
aS'http://www.youtube.com/watch?v=Xee21YvTaXR'
p427
aS'http://www.youtube.com/watch?v=eq81nWQ27Md'
p428
aS'http://www.youtube.com/watch?v=Lthy7mTwoIu'
p429
aS'http://www.youtube.com/watch?v=tc8X4V4W9Xd'
p430
aS'http://www.youtube.com/watch?v=dh7vOEBX2_J'
p431
aS'http://www.youtube.com/watch?v=Ctyj3kUEOb0'
p432
aS'http://www.youtube.com/watch?v=NwkkC-77-BE'
p433
aS'http://www.youtube.com/watch?v=xuG1fejONAJ'
p434
aS'http://www.youtube.com/watch?v=jI4XYyt6F2F'
p435
aS'http://www.youtube.com/watch?v=hUbAdsZV-5v'
p436
aS'http://www.youtube.com/watch?v=YM6L4dMrkVK'
p437
aS'http://www.youtube.com/watch?v=a-sifyGkxzk'
p438
aS'http://www.youtube.com/watch?v=KpfhBpZYx12'
p439
aS'http://www.youtube.com/watch?v=NUGI3LuSZ8-'
p440
aS'http://www.youtube.com/watch?v=1jTR6wtwo95'
p441
aS'http://www.youtube.com/watch?v=PRptTg_N6KA'
p442
aS'http://www.youtube.com/watch?v=QiCvVaIbK2r'
p443
aS'http://www.youtube.com/watch?v=sHy4zACZywM'
p444
aS'http://www.youtube.com/watch?v=TA3aoj7NFA5'
p445
aS'http://www.youtube.com/watch?v=J9H8slSgenr'
p446
aS'http://www.youtube.com/watch?v=QnWS1FXWjPM'
p447
aS'http://www.youtube.com/watch?v=lHDPV4QTwp1'
p448
aS'http://www.youtube.com/watch?v=0gL68HBqlIs'
p449
aS'http://www.youtube.com/watch?v=Hm0INiP0YGh'
p450
aS'http://www.youtube.com/watch?v=q3AVa6wZoTg'
p451
aS'http://www.youtube.com/watch?v=BUSpjaftv55'
p452
aS'http://www.youtube.com/watch?v=9pQn7wVNJ_p'
p453
aS'http://www.youtube.com/watch?v=dqKhK0joaaW'
p454
aS'http://www.youtube.com/watch?v=BUPnm5jtTEg'
p455
aS'http://www.youtube.com/watch?v=hQlTLQeSyB1'
p456
aS'http://www.youtube.com/watch?v=2iuBtBeGJPe'
p457
aS'http://www.youtube.com/watch?v=ehH2toAf_c1'
p458
aS'http://www.youtube.com/watch?v=RCLuJOnHgUw'
p459
aS'http://www.youtube.com/watch?v=XejLhGGfbcx'
p460
aS'http://www.youtube.com/watch?v=91CgNyLkIO6'
p461
aS'http://www.youtube.com/watch?v=Hftc-X7fj30'
p462
aS'http://www.youtube.com/watch?v=lJqRpzjkUGb'
p463
aS'http://www.youtube.com/watch?v=Bl5Cw2wHN_a'
p464
aS'http://www.youtube.com/watch?v=etknyeNxjXi'
p465
aS'http://www.youtube.com/watch?v=faa7IPayK87'
p466
aS'http://www.youtube.com/watch?v=WNZd5Jjh9sz'
p467
aS'http://www.youtube.com/watch?v=LOOTB6WuHgl'
p468
aS'http://www.youtube.com/watch?v=YnPhs9YctfS'
p469
aS'http://www.youtube.com/watch?v=GoqW2TKJgEG'
p470
aS'http://www.youtube.com/watch?v=j-Uy9N-AwP8'
p471
aS'http://www.youtube.com/watch?v=-vNKoN-gclP'
p472
aS'http://www.youtube.com/watch?v=wjOvUw96vUY'
p473
aS'http://www.youtube.com/watch?v=WO-EKf8v3-k'
p474
aS'http://www.youtube.com/watch?v=uRkMPjHdveS'
p475
aS'http://www.youtube.com/watch?v=DOnjDNv7g1I'
p476
aS'http://www.youtube.com/watch?v=j1lGL1mtuWf'
p477
aS'http://www.youtube.com/watch?v=WzFyfrO8PPz'
p478
aS'http://www.youtube.com/watch?v=uEwsPznh0Fe'
p479
aS'http://www.youtube.com/watch?v=fpYWXGvwCSA'
p480
aS'http://www.youtube.com/watch?v=1e0kp9SANx8'
p481
aS'http://www.youtube.com/watch?v=mRl7uCvcB7N'
p482
aS'http://www.youtube.com/watch?v=88VD4sucrlm'
p483
aS'http://www.youtube.com/watch?v=LtF2YyOOMCd'
p484
aS'http://www.youtube.com/watch?v=9nx9u9TA2Qf'
p485
aS'http://www.youtube.com/watch?v=On7GrOcqPA5'
p486
aS'http://www.youtube.com/watch?v=YJPzs7d9tT5'
p487
aS'http://www.youtube.com/watch?v=jLfrZjXqnvN'
p488
aS'http://www.youtube.com/watch?v=J_znV_HTjNd'
p489
aS'http://www.youtube.com/watch?v=Z5Gt3XOb-qS'
p490
aS'http://www.youtube.com/watch?v=XFg_hth2cu7'
p491
aS'http://www.youtube.com/watch?v=p3vIZAoEzmw'
p492
aS'http://www.youtube.com/watch?v=R6r41LYTMyE'
p493
aS'http://www.youtube.com/watch?v=8sfP1h62dJ-'
p494
aS'http://www.youtube.com/watch?v=-VFUMiM4Qt_'
p495
aS'http://www.youtube.com/watch?v=k7voVDE36t5'
p496
aS'http://www.youtube.com/watch?v=ng8ra6O18lc'
p497
aS'http://www.youtube.com/watch?v=y1r3q4HIqfx'
p498
aS'http://www.youtube.com/watch?v=oBi9uhhWzcd'
p499
aS'http://www.youtube.com/watch?v=_MJ28cfmxv3'
p500
aS'http://www.youtube.com/watch?v=UwZ7wZxLz1E'
p501
aS'http://www.youtube.com/watch?v=aGFx-dqSXNr'
p502
aS'http://www.youtube.com/watch?v=Azq-XZHk7vW'
p503
aS'http://www.youtube.com/watch?v=DpRDDbpV64z'
p504
aS'http://www.youtube.com/watch?v=WXOZxR2lMkt'
p505
aS'http://www.youtube.com/watch?v=PIhRo-xmj7T'
p506
aS'http://www.youtube.com/watch?v=QbEPIfjlL11'
p507
aS'http://www.youtube.com/watch?v=zw7-KAJCYdc'
p508
aS'http://www.youtube.com/watch?v=IdoMY9p1iaD'
p509
aS'http://www.youtube.com/watch?v=zpM1hu6bjqZ'
p510
aS'http://www.youtube.com/watch?v=bRcRmVvOvGE'
p511
aS'http://www.youtube.com/watch?v=PkxmFEUmY8N'
p512
aS'http://www.youtube.com/watch?v=BFEXtNmO5_G'
p513
aS'http://www.youtube.com/watch?v=2yB9LtLEvRj'
p514
aS'http://www.youtube.com/watch?v=SCliGtWXvDA'
p515
aS'http://www.youtube.com/watch?v=Kd9nHoZdpJ4'
p516
aS'http://www.youtube.com/watch?v=IVeFL5jXtCV'
p517
aS'http://www.youtube.com/watch?v=xP3SNXMN6-w'
p518
aS'http://www.youtube.com/watch?v=AdLWQkc9tVq'
p519
aS'http://www.youtube.com/watch?v=x_Ltx0ppioS'
p520
aS'http://www.youtube.com/watch?v=tGWc-YBQayc'
p521
aS'http://www.youtube.com/watch?v=lLKxxH3T2e4'
p522
aS'http://www.youtube.com/watch?v=k1bz1sIdIUY'
p523
aS'http://www.youtube.com/watch?v=-1jzRp_5Ecd'
p524
aS'http://www.youtube.com/watch?v=HaWLb1FuBIF'
p525
aS'http://www.youtube.com/watch?v=RjsETRSEzUd'
p526
aS'http://www.youtube.com/watch?v=dvNtkhfNItE'
p527
aS'http://www.youtube.com/watch?v=G3A50OXiN4K'
p528
aS'http://www.youtube.com/watch?v=Xas18Y7uPrS'
p529
aS'http://www.youtube.com/watch?v=AC2HHnbwNw_'
p530
aS'http://www.youtube.com/watch?v=Bv5yoMuYmnD'
p531
aS'http://www.youtube.com/watch?v=RAuwmJzky8Q'
p532
aS'http://www.youtube.com/watch?v=nUyT55O3g_h'
p533
aS'http://www.youtube.com/watch?v=lPWU4y2A_Xe'
p534
aS'http://www.youtube.com/watch?v=s_Pwlgw5d8H'
p535
aS'http://www.youtube.com/watch?v=8NtKMn00OYl'
p536
aS'http://www.youtube.com/watch?v=PTDzP9YBvhA'
p537
aS'http://www.youtube.com/watch?v=mk09igwPwzf'
p538
aS'http://www.youtube.com/watch?v=Z85VtmUZQDe'
p539
aS'http://www.youtube.com/watch?v=QL75-DyKj9E'
p540
aS'http://www.youtube.com/watch?v=Tba_yBl59LF'
p541
aS'http://www.youtube.com/watch?v=ivqIW-fX5QI'
p542
aS'http://www.youtube.com/watch?v=0ViVPJjdhQ6'
p543
aS'http://www.youtube.com/watch?v=nmzBFN1vCTT'
p544
aS'http://www.youtube.com/watch?v=u7f1_3iLAQg'
p545
aS'http://www.youtube.com/watch?v=8OVjXdkKAFJ'
p546
aS'http://www.youtube.com/watch?v=l_HUT9PBQwa'
p547
aS'http://www.youtube.com/watch?v=F7rsDQ8Lrcn'
p548
aS'http://www.youtube.com/watch?v=2O9AK7IsMfU'
p549
aS'http://www.youtube.com/watch?v=9DjUo6gjp9T'
p550
aS'http://www.youtube.com/watch?v=KJ2oOzDLgbg'
p551
aS'http://www.youtube.com/watch?v=jSPnIUOlvik'
p552
aS'http://www.youtube.com/watch?v=D8172w5LcRn'
p553
aS'http://www.youtube.com/watch?v=w5TIGLQ-EQo'
p554
aS'http://www.youtube.com/watch?v=DsHrUHZUaCt'
p555
aS'http://www.youtube.com/watch?v=cVqK3jmxOOH'
p556
aS'http://www.youtube.com/watch?v=v-H3523pMeq'
p557
aS'http://www.youtube.com/watch?v=U0djvSaet68'
p558
aS'http://www.youtube.com/watch?v=E7vgTT4BaBq'
p559
aS'http://www.youtube.com/watch?v=DI-kOYom4mY'
p560
aS'http://www.youtube.com/watch?v=TIly3Zw7hNU'
p561
aS'http://www.youtube.com/watch?v=MtylYKfe49Y'
p562
aS'http://www.youtube.com/watch?v=u6u0MeL2nO-'
p563
aS'http://www.youtube.com/watch?v=0fscKPsvAKU'
p564
aS'http://www.youtube.com/watch?v=5x8rmxmnxts'
p565
aS'http://www.youtube.com/watch?v=RLNS8lTW4dh'
p566
aS'http://www.youtube.com/watch?v=NFT1zGi-6Wv'
p567
aS'http://www.youtube.com/watch?v=7UfSvvXZcQS'
p568
aS'http://www.youtube.com/watch?v=25fXBknHymg'
p569
aS'http://www.youtube.com/watch?v=5RjXePV5yj5'
p570
aS'http://www.youtube.com/watch?v=AwSlxPGcV6_'
p571
aS'http://www.youtube.com/watch?v=Mpd6bweAqdE'
p572
aS'http://www.youtube.com/watch?v=EbZuPp3Sd97'
p573
aS'http://www.youtube.com/watch?v=qU2qHFhRYVX'
p574
aS'http://www.youtube.com/watch?v=l6hEB6_sPi4'
p575
aS'http://www.youtube.com/watch?v=SMT9wLGltVw'
p576
aS'http://www.youtube.com/watch?v=j86MtwCN2Es'
p577
aS'http://www.youtube.com/watch?v=ZNoLyABHaet'
p578
aS'http://www.youtube.com/watch?v=rFaG4Tr6mPQ'
p579
aS'http://www.youtube.com/watch?v=FOaWpZ-N9Ey'
p580
aS'http://www.youtube.com/watch?v=GGL9hKEdz4Y'
p581
aS'http://www.youtube.com/watch?v=FAufkyofjET'
p582
aS'http://www.youtube.com/watch?v=8LDNI74Ld05'
p583
aS'http://www.youtube.com/watch?v=U2K7-QgiLxx'
p584
aS'http://www.youtube.com/watch?v=YxCB4CbJb13'
p585
aS'http://www.youtube.com/watch?v=pSmyVMOWrog'
p586
aS'http://www.youtube.com/watch?v=FErL7bP7QV8'
p587
aS'http://www.youtube.com/watch?v=OJKWIhhTFm-'
p588
aS'http://www.youtube.com/watch?v=u-BSUEvSccu'
p589
aS'http://www.youtube.com/watch?v=kJTdmnzo2A6'
p590
aS'http://www.youtube.com/watch?v=TSdxKxk4cJ2'
p591
aS'http://www.youtube.com/watch?v=uGtUxvL3hY4'
p592
aS'http://www.youtube.com/watch?v=CARhe3k9H6l'
p593
aS'http://www.youtube.com/watch?v=3zgYyHMjQxx'
p594
aS'http://www.youtube.com/watch?v=zd7e6DMnzQw'
p595
aS'http://www.youtube.com/watch?v=sRYItoXzntt'
p596
aS'http://www.youtube.com/watch?v=FttWyZviRbd'
p597
aS'http://www.youtube.com/watch?v=cpJY4ZGZ6Ye'
p598
aS'http://www.youtube.com/watch?v=0pWKntXjiQp'
p599
aS'http://www.youtube.com/watch?v=W9CrAtuKdxT'
p600
aS'http://www.youtube.com/watch?v=YlWn_NOXYbE'
p601
aS'http://www.youtube.com/watch?v=Mn7g_5qsES1'
p602
aS'http://www.youtube.com/watch?v=FB30UrdvTwq'
p603
aS'http://www.youtube.com/watch?v=lZYdcqUYNru'
p604
aS'http://www.youtube.com/watch?v=XtdEMYn8Af7'
p605
aS'http://www.youtube.com/watch?v=y9OZs6swI-H'
p606
aS'http://www.youtube.com/watch?v=oLbeQwmXpgL'
p607
aS'http://www.youtube.com/watch?v=RSvOePxoCpR'
p608
aS'http://www.youtube.com/watch?v=AmjNORQseOB'
p609
aS'http://www.youtube.com/watch?v=Ud3O2OCJ2F9'
p610
aS'http://www.youtube.com/watch?v=fA5SoMNw4L9'
p611
aS'http://www.youtube.com/watch?v=11ZDy5Urrpk'
p612
aS'http://www.youtube.com/watch?v=0ot0uLM8Lbo'
p613
aS'http://www.youtube.com/watch?v=EA1ut6UmUeN'
p614
aS'http://www.youtube.com/watch?v=F5WFBVTk0qr'
p615
aS'http://www.youtube.com/watch?v=oO4BS9v60N0'
p616
aS'http://www.youtube.com/watch?v=UiIm2UrY3wd'
p617
aS'http://www.youtube.com/watch?v=PArlz9a8C-v'
p618
aS'http://www.youtube.com/watch?v=Oi4ITztaa6E'
p619
aS'http://www.youtube.com/watch?v=sCugU0cIKgM'
p620
aS'http://www.youtube.com/watch?v=R250G8lm9kg'
p621
aS'http://www.youtube.com/watch?v=TQkE6IhWNQ6'
p622
aS'http://www.youtube.com/watch?v=nkgcyh1WMhP'
p623
aS'http://www.youtube.com/watch?v=Mtfqh3bnYlj'
p624
aS'http://www.youtube.com/watch?v=xRCYF-mVvr2'
p625
aS'http://www.youtube.com/watch?v=n35wSbNwRbs'
p626
aS'http://www.youtube.com/watch?v=yRYjFY2_KhA'
p627
aS'http://www.youtube.com/watch?v=6QJGFcF9GG4'
p628
aS'http://www.youtube.com/watch?v=Eq3hKQw6wKW'
p629
aS'http://www.youtube.com/watch?v=epRg07Fc1gp'
p630
aS'http://www.youtube.com/watch?v=ri_iY-28rKY'
p631
aS'http://www.youtube.com/watch?v=p1jnRbtIbOb'
p632
aS'http://www.youtube.com/watch?v=BNjVPmHYVvL'
p633
aS'http://www.youtube.com/watch?v=JwjhvM1F_n5'
p634
aS'http://www.youtube.com/watch?v=71WkIDv-nFH'
p635
aS'http://www.youtube.com/watch?v=PTD5AvVXQjN'
p636
aS'http://www.youtube.com/watch?v=vBuhT6LUAYe'
p637
aS'http://www.youtube.com/watch?v=ZJJgpZO7Gpu'
p638
aS'http://www.youtube.com/watch?v=sNbUYhFHXP-'
p639
aS'http://www.youtube.com/watch?v=h1Gt5KlDD56'
p640
aS'http://www.youtube.com/watch?v=XdNIfHpXvd7'
p641
aS'http://www.youtube.com/watch?v=UVgSva9nOhX'
p642
aS'http://www.youtube.com/watch?v=W5gpYsjL1RB'
p643
aS'http://www.youtube.com/watch?v=lBSks1GHpiw'
p644
aS'http://www.youtube.com/watch?v=BF_h4b3RUi2'
p645
aS'http://www.youtube.com/watch?v=1HCOLiQmeZd'
p646
aS'http://www.youtube.com/watch?v=sPEg6soaXf0'
p647
aS'http://www.youtube.com/watch?v=sPC_Wijoq8O'
p648
aS'http://www.youtube.com/watch?v=2Op3WlVZ5II'
p649
aS'http://www.youtube.com/watch?v=9oicmpalZIv'
p650
aS'http://www.youtube.com/watch?v=yotCZcwAP94'
p651
aS'http://www.youtube.com/watch?v=peDhBGdEYLg'
p652
aS'http://www.youtube.com/watch?v=cTh1f9xrpq_'
p653
aS'http://www.youtube.com/watch?v=67_KXzanohs'
p654
aS'http://www.youtube.com/watch?v=Ba1cbgZrJXi'
p655
aS'http://www.youtube.com/watch?v=8D00mfeRSPi'
p656
aS'http://www.youtube.com/watch?v=Bj3psO9sQgc'
p657
aS'http://www.youtube.com/watch?v=8OQ32g18FMA'
p658
aS'http://www.youtube.com/watch?v=DruJkcHZDu9'
p659
aS'http://www.youtube.com/watch?v=STJrWtnefXX'
p660
aS'http://www.youtube.com/watch?v=5KWa0qnxNTs'
p661
aS'http://www.youtube.com/watch?v=SHtxisi2HMC'
p662
aS'http://www.youtube.com/watch?v=rQbkPZZeejQ'
p663
aS'http://www.youtube.com/watch?v=yATonH7Gzds'
p664
aS'http://www.youtube.com/watch?v=7smJIvv5iIn'
p665
aS'http://www.youtube.com/watch?v=oNzwDNgx4S_'
p666
aS'http://www.youtube.com/watch?v=m6cJS6aR9do'
p667
aS'http://www.youtube.com/watch?v=7AWeOJcH5yz'
p668
aS'http://www.youtube.com/watch?v=SPcvTB7w-Uz'
p669
aS'http://www.youtube.com/watch?v=mSzvZQIjHyA'
p670
aS'http://www.youtube.com/watch?v=QK0mJqg27bd'
p671
aS'http://www.youtube.com/watch?v=K9bWEE_YLaw'
p672
aS'http://www.youtube.com/watch?v=QimwUCm6GaU'
p673
aS'http://www.youtube.com/watch?v=5-wS6-h8cXN'
p674
aS'http://www.youtube.com/watch?v=vYpWXjI-_Uj'
p675
aS'http://www.youtube.com/watch?v=spJrLj6Ktjq'
p676
aS'http://www.youtube.com/watch?v=JOdDGOlYCET'
p677
aS'http://www.youtube.com/watch?v=Rb6obkloOJH'
p678
aS'http://www.youtube.com/watch?v=0-GL_ExKgLY'
p679
aS'http://www.youtube.com/watch?v=P1kfDZWaFcc'
p680
aS'http://www.youtube.com/watch?v=nFRjpD-j__p'
p681
aS'http://www.youtube.com/watch?v=x3uadYY2YIl'
p682
aS'http://www.youtube.com/watch?v=G5BnqlQORyJ'
p683
aS'http://www.youtube.com/watch?v=ASO6-DLTaok'
p684
aS'http://www.youtube.com/watch?v=YgZKLYcLnBo'
p685
aS'http://www.youtube.com/watch?v=tCQqhwy3W0L'
p686
aS'http://www.youtube.com/watch?v=GZmHY5yMwNl'
p687
aS'http://www.youtube.com/watch?v=Zb78Vml4iJ8'
p688
aS'http://www.youtube.com/watch?v=yAkLUNEMySw'
p689
aS'http://www.youtube.com/watch?v=lMeYljltTBe'
p690
aS'http://www.youtube.com/watch?v=UwmLgNaff3d'
p691
aS'http://www.youtube.com/watch?v=TOdnnXW59MO'
p692
aS'http://www.youtube.com/watch?v=aZztbqMk4q8'
p693
aS'http://www.youtube.com/watch?v=wHAyZzT0roa'
p694
aS'http://www.youtube.com/watch?v=IBXKI2eJ7cp'
p695
aS'http://www.youtube.com/watch?v=7mLL1S5BHmm'
p696
aS'http://www.youtube.com/watch?v=jTUbkRtBsej'
p697
aS'http://www.youtube.com/watch?v=_Gdar_6h4Gs'
p698
aS'http://www.youtube.com/watch?v=7GY6ThHm37W'
p699
aS'http://www.youtube.com/watch?v=PW-CH2QkBRG'
p700
aS'http://www.youtube.com/watch?v=p41gftoKD64'
p701
aS'http://www.youtube.com/watch?v=MSVJqdzpUgY'
p702
aS'http://www.youtube.com/watch?v=RjmCw7LuZuu'
p703
aS'http://www.youtube.com/watch?v=1feYHiUWLxL'
p704
aS'http://www.youtube.com/watch?v=fY-x-LM9Yz0'
p705
aS'http://www.youtube.com/watch?v=ApRJGPAgZtG'
p706
aS'http://www.youtube.com/watch?v=CEZNS67k0ty'
p707
aS'http://www.youtube.com/watch?v=Qk0_Io8FNjP'
p708
aS'http://www.youtube.com/watch?v=M3pyvXg4sbZ'
p709
aS'http://www.youtube.com/watch?v=hEkLdsQ96pH'
p710
aS'http://www.youtube.com/watch?v=mFHSEEmSeNP'
p711
aS'http://www.youtube.com/watch?v=gy3XZlrFaUA'
p712
aS'http://www.youtube.com/watch?v=sQOH_aQ0XTS'
p713
aS'http://www.youtube.com/watch?v=bmTL_1s4w6s'
p714
aS'http://www.youtube.com/watch?v=3onjUVXrSvX'
p715
aS'http://www.youtube.com/watch?v=bFZoEs_wall'
p716
aS'http://www.youtube.com/watch?v=93Fc1Ig_3i3'
p717
aS'http://www.youtube.com/watch?v=mU6gC4izGTX'
p718
aS'http://www.youtube.com/watch?v=owWskNr6Bof'
p719
aS'http://www.youtube.com/watch?v=y2SnC019GzI'
p720
aS'http://www.youtube.com/watch?v=8a2V4av_ax2'
p721
aS'http://www.youtube.com/watch?v=-REz79ijQA3'
p722
aS'http://www.youtube.com/watch?v=tdPETH972V4'
p723
aS'http://www.youtube.com/watch?v=a7p-F1NGGsO'
p724
aS'http://www.youtube.com/watch?v=ru7u25WfT9_'
p725
aS'http://www.youtube.com/watch?v=isVJWjVqJNi'
p726
aS'http://www.youtube.com/watch?v=u8c-EUZUaEH'
p727
aS'http://www.youtube.com/watch?v=c-gW_wK5Gm2'
p728
aS'http://www.youtube.com/watch?v=SennGxBjynD'
p729
aS'http://www.youtube.com/watch?v=eQ8hE8vu4ui'
p730
aS'http://www.youtube.com/watch?v=hy9-giQsDT1'
p731
aS'http://www.youtube.com/watch?v=jWLWs1IuIPj'
p732
aS'http://www.youtube.com/watch?v=P65VYSzkSE_'
p733
aS'http://www.youtube.com/watch?v=vV3CEf3cR2v'
p734
aS'http://www.youtube.com/watch?v=ZfagN2QAsJ9'
p735
aS'http://www.youtube.com/watch?v=7PKSRN9ymp5'
p736
aS'http://www.youtube.com/watch?v=_LJ2AiIQBvY'
p737
aS'http://www.youtube.com/watch?v=e_UQsjmg0Ao'
p738
aS'http://www.youtube.com/watch?v=NdVr8weu93c'
p739
aS'http://www.youtube.com/watch?v=e_AneQIfHoQ'
p740
aS'http://www.youtube.com/watch?v=Ys761WoyoaX'
p741
aS'http://www.youtube.com/watch?v=GC3N49rhA6_'
p742
aS'http://www.youtube.com/watch?v=Y_PjXxXTxpb'
p743
aS'http://www.youtube.com/watch?v=O1bW0C_KNfT'
p744
aS'http://www.youtube.com/watch?v=7y1gx1t0aEZ'
p745
aS'http://www.youtube.com/watch?v=qihyz-1WyxS'
p746
aS'http://www.youtube.com/watch?v=lV8ShEGTQ7Q'
p747
aS'http://www.youtube.com/watch?v=MCP_pEYRrF8'
p748
aS'http://www.youtube.com/watch?v=Hz6eOvJcnpp'
p749
aS'http://www.youtube.com/watch?v=tS_a-WNP8O8'
p750
aS'http://www.youtube.com/watch?v=-kTmyTP9aer'
p751
aS'http://www.youtube.com/watch?v=hAATdwhHfaA'
p752
aS'http://www.youtube.com/watch?v=1CoDuvNtPHr'
p753
aS'http://www.youtube.com/watch?v=Q3VUO572HG-'
p754
aS'http://www.youtube.com/watch?v=OAiloP4Y8A7'
p755
aS'http://www.youtube.com/watch?v=GB5bPBnX08D'
p756
aS'http://www.youtube.com/watch?v=OwP3wa3kSNI'
p757
aS'http://www.youtube.com/watch?v=OkBtIBBo0Ma'
p758
aS'http://www.youtube.com/watch?v=7FiDsepR159'
p759
aS'http://www.youtube.com/watch?v=OAgAAGyom6y'
p760
aS'http://www.youtube.com/watch?v=mb9dBKR9tga'
p761
aS'http://www.youtube.com/watch?v=IBfJ_6HUVtQ'
p762
aS'http://www.youtube.com/watch?v=kJ_DWFOgEKs'
p763
aS'http://www.youtube.com/watch?v=ya57qybKiy7'
p764
aS'http://www.youtube.com/watch?v=8vhezg4tP4V'
p765
aS'http://www.youtube.com/watch?v=d0JoWkD1g1P'
p766
aS'http://www.youtube.com/watch?v=PJq8j79mb1_'
p767
aS'http://www.youtube.com/watch?v=08-YSKPWv1R'
p768
aS'http://www.youtube.com/watch?v=u3-bP-PEigN'
p769
aS'http://www.youtube.com/watch?v=yqm9DMkn_x2'
p770
aS'http://www.youtube.com/watch?v=0GdvyIEbrM6'
p771
aS'http://www.youtube.com/watch?v=uFzwgDoHY4_'
p772
aS'http://www.youtube.com/watch?v=ml68jOOjPvf'
p773
aS'http://www.youtube.com/watch?v=RZtry-YrxAW'
p774
aS'http://www.youtube.com/watch?v=dmneXqNwS_D'
p775
aS'http://www.youtube.com/watch?v=hBnqKnQXqPM'
p776
aS'http://www.youtube.com/watch?v=P1qUNp-gJL4'
p777
aS'http://www.youtube.com/watch?v=ViSK6tOKWnl'
p778
aS'http://www.youtube.com/watch?v=v7QFFofJjlD'
p779
aS'http://www.youtube.com/watch?v=gvIqbyfkc5Q'
p780
aS'http://www.youtube.com/watch?v=pn7S3PDH1cj'
p781
aS'http://www.youtube.com/watch?v=i-0zT3zjOFY'
p782
aS'http://www.youtube.com/watch?v=aL1nJcgGfWG'
p783
aS'http://www.youtube.com/watch?v=AEQA6s67RLq'
p784
aS'http://www.youtube.com/watch?v=tDablWsf2TX'
p785
aS'http://www.youtube.com/watch?v=r9fZdOwKq9F'
p786
aS'http://www.youtube.com/watch?v=x9vfnuEO6hJ'
p787
aS'http://www.youtube.com/watch?v=x4OZxmMfLEE'
p788
aS'http://www.youtube.com/watch?v=qSCgAfV_5ns'
p789
aS'http://www.youtube.com/watch?v=SNGRT84bsN2'
p790
aS'http://www.youtube.com/watch?v=QjJE7s20guI'
p791
aS'http://www.youtube.com/watch?v=fLSdDvemlNy'
p792
aS'http://www.youtube.com/watch?v=WAnAYmSSU8V'
p793
aS'http://www.youtube.com/watch?v=moyBrfGBbbY'
p794
aS'http://www.youtube.com/watch?v=8jw7Bgq1XiY'
p795
aS'http://www.youtube.com/watch?v=geqm1zErW48'
p796
aS'http://www.youtube.com/watch?v=3RWZmeKteCH'
p797
aS'http://www.youtube.com/watch?v=0hxyJa6YrlO'
p798
aS'http://www.youtube.com/watch?v=mbYSdVU0Asa'
p799
aS'http://www.youtube.com/watch?v=LHWvow7JVtC'
p800
aS'http://www.youtube.com/watch?v=Yq5our7tusu'
p801
aS'http://www.youtube.com/watch?v=_OggBD_1P6L'
p802
aS'http://www.youtube.com/watch?v=EdIJUl1RCpV'
p803
aS'http://www.youtube.com/watch?v=OoSOpwnePsV'
p804
aS'http://www.youtube.com/watch?v=2O13_Bkb54i'
p805
aS'http://www.youtube.com/watch?v=OHxHGaB4Xez'
p806
aS'http://www.youtube.com/watch?v=01aV75EyMbz'
p807
aS'http://www.youtube.com/watch?v=syjRDv0ORta'
p808
aS'http://www.youtube.com/watch?v=IeKFWqwsSOo'
p809
aS'http://www.youtube.com/watch?v=EO8K07_sRjN'
p810
aS'http://www.youtube.com/watch?v=Y3zHS4yiy9G'
p811
aS'http://www.youtube.com/watch?v=rKEUPo0n7Kg'
p812
aS'http://www.youtube.com/watch?v=c6gqXDZ33AC'
p813
aS'http://www.youtube.com/watch?v=OmZwDRZuPVE'
p814
aS'http://www.youtube.com/watch?v=ISZYVPA_5pD'
p815
aS'http://www.youtube.com/watch?v=1F-3PvXHWgi'
p816
aS'http://www.youtube.com/watch?v=fuDrMDRF4Gk'
p817
aS'http://www.youtube.com/watch?v=L3R38WH_PXT'
p818
aS'http://www.youtube.com/watch?v=rVsRkY1W1Ct'
p819
aS'http://www.youtube.com/watch?v=sCUJL4OakBL'
p820
aS'http://www.youtube.com/watch?v=YT29ojMGxp7'
p821
aS'http://www.youtube.com/watch?v=5jdeedIaWHE'
p822
aS'http://www.youtube.com/watch?v=mgcUUxfUjQY'
p823
aS'http://www.youtube.com/watch?v=nR63Mcq-AzD'
p824
aS'http://www.youtube.com/watch?v=TnNiO6GCHyw'
p825
aS'http://www.youtube.com/watch?v=AQIvvTl0vui'
p826
aS'http://www.youtube.com/watch?v=aDow9OoxnCs'
p827
aS'http://www.youtube.com/watch?v=RKGJL9JY1tZ'
p828
aS'http://www.youtube.com/watch?v=GipD0SU5IJt'
p829
aS'http://www.youtube.com/watch?v=-P4gW2pKPtR'
p830
aS'http://www.youtube.com/watch?v=9bokNTxTI4h'
p831
aS'http://www.youtube.com/watch?v=vMi4zRSDvGu'
p832
aS'http://www.youtube.com/watch?v=ohPbCvcza4R'
p833
aS'http://www.youtube.com/watch?v=7oPPv1fQY0N'
p834
aS'http://www.youtube.com/watch?v=9yndwJwAHG2'
p835
aS'http://www.youtube.com/watch?v=v0N10fS8Ap5'
p836
aS'http://www.youtube.com/watch?v=W8A12Tdp-JM'
p837
aS'http://www.youtube.com/watch?v=vM2-XdcPLsR'
p838
aS'http://www.youtube.com/watch?v=HrVpXIf9kXW'
p839
aS'http://www.youtube.com/watch?v=KAZ2kw-M3zW'
p840
aS'http://www.youtube.com/watch?v=TghYIsLhfE4'
p841
aS'http://www.youtube.com/watch?v=vypYQ-en6fa'
p842
aS'http://www.youtube.com/watch?v=4iPQzPTYApP'
p843
aS'http://www.youtube.com/watch?v=3P6Kp-dojJ-'
p844
aS'http://www.youtube.com/watch?v=Gf-rJ2fdTA_'
p845
aS'http://www.youtube.com/watch?v=mAyIWD_hx8b'
p846
aS'http://www.youtube.com/watch?v=Qdf9L0-sCRp'
p847
aS'http://www.youtube.com/watch?v=zx0wSZrDYqG'
p848
aS'http://www.youtube.com/watch?v=4ygiCaDGSiB'
p849
aS'http://www.youtube.com/watch?v=0OuCosmwywL'
p850
aS'http://www.youtube.com/watch?v=50NLbZrV0ZD'
p851
aS'http://www.youtube.com/watch?v=zMer6CXoECC'
p852
aS'http://www.youtube.com/watch?v=m8adzpmVr3V'
p853
aS'http://www.youtube.com/watch?v=j1MitCG7Zk9'
p854
aS'http://www.youtube.com/watch?v=SHxc4wQR6UF'
p855
aS'http://www.youtube.com/watch?v=FAlH-pXXv45'
p856
aS'http://www.youtube.com/watch?v=Q7MHQRB1w96'
p857
aS'http://www.youtube.com/watch?v=OVD_hxIFPAi'
p858
aS'http://www.youtube.com/watch?v=z753BOXD8iM'
p859
aS'http://www.youtube.com/watch?v=M7gHMygQoLA'
p860
aS'http://www.youtube.com/watch?v=2Sqq9i3N909'
p861
aS'http://www.youtube.com/watch?v=SmoQipw43bG'
p862
aS'http://www.youtube.com/watch?v=xswuuCoBfb4'
p863
aS'http://www.youtube.com/watch?v=LWJRCRc-69-'
p864
aS'http://www.youtube.com/watch?v=L3j5w9qpj26'
p865
aS'http://www.youtube.com/watch?v=Vk0jn2RGO0o'
p866
aS'http://www.youtube.com/watch?v=2-5Ior7mJDV'
p867
aS'http://www.youtube.com/watch?v=pXJC7eKBLUR'
p868
aS'http://www.youtube.com/watch?v=u2Xo-fZwQiT'
p869
aS'http://www.youtube.com/watch?v=hcAGqt9iiCi'
p870
aS'http://www.youtube.com/watch?v=A7CJbjWEjII'
p871
aS'http://www.youtube.com/watch?v=zshGiGaz7mp'
p872
aS'http://www.youtube.com/watch?v=IiY86wKp1DY'
p873
aS'http://www.youtube.com/watch?v=knPJ60Ypcal'
p874
aS'http://www.youtube.com/watch?v=DKqeHS0-v0F'
p875
aS'http://www.youtube.com/watch?v=AAhg14HCbyj'
p876
aS'http://www.youtube.com/watch?v=yDvAbyV5Va6'
p877
aS'http://www.youtube.com/watch?v=Kac7pgFDhHI'
p878
aS'http://www.youtube.com/watch?v=1bMQVTnS9_7'
p879
aS'http://www.youtube.com/watch?v=gJDjnrMtzvE'
p880
aS'http://www.youtube.com/watch?v=xZHD0FvXESO'
p881
aS'http://www.youtube.com/watch?v=TNUZyR3VNdl'
p882
aS'http://www.youtube.com/watch?v=hKZoDA4V5Rc'
p883
aS'http://www.youtube.com/watch?v=dVkP_2cQ2Iu'
p884
aS'http://www.youtube.com/watch?v=RNHoqPBrK4h'
p885
aS'http://www.youtube.com/watch?v=IyM6v2Dhlb1'
p886
aS'http://www.youtube.com/watch?v=p9E-QwS0ILb'
p887
aS'http://www.youtube.com/watch?v=uOIHlvUCU7u'
p888
aS'http://www.youtube.com/watch?v=SmqMZws29i3'
p889
aS'http://www.youtube.com/watch?v=IMoqC-YmpJB'
p890
aS'http://www.youtube.com/watch?v=n1kmhE0fi9K'
p891
aS'http://www.youtube.com/watch?v=CHcrdnggbAS'
p892
aS'http://www.youtube.com/watch?v=89JdB1LC5no'
p893
aS'http://www.youtube.com/watch?v=uaM-S0sZGu1'
p894
aS'http://www.youtube.com/watch?v=LpaV8D6mfQk'
p895
aS'http://www.youtube.com/watch?v=pguOdaIBE3-'
p896
aS'http://www.youtube.com/watch?v=OCXJBpU60zr'
p897
aS'http://www.youtube.com/watch?v=xIJt_5vxyXq'
p898
aS'http://www.youtube.com/watch?v=tGW7hpBqxAJ'
p899
aS'http://www.youtube.com/watch?v=NZkWNucs6Lx'
p900
aS'http://www.youtube.com/watch?v=oALBzjPCYh4'
p901
aS'http://www.youtube.com/watch?v=HW7DOrTloqB'
p902
aS'http://www.youtube.com/watch?v=dE1d2EI8afH'
p903
aS'http://www.youtube.com/watch?v=8mqRL99B8Cs'
p904
aS'http://www.youtube.com/watch?v=WxGZhPaLQaD'
p905
aS'http://www.youtube.com/watch?v=eNpSk04CNSq'
p906
aS'http://www.youtube.com/watch?v=FwbKcdnrHlM'
p907
aS'http://www.youtube.com/watch?v=0H4k1jM1xt6'
p908
aS'http://www.youtube.com/watch?v=wSKMUmgcZiP'
p909
aS'http://www.youtube.com/watch?v=VaPoLsExQrx'
p910
aS'http://www.youtube.com/watch?v=uys43Qa4iGY'
p911
aS'http://www.youtube.com/watch?v=Ucpo0KO8OXY'
p912
aS'http://www.youtube.com/watch?v=_plL3L5s6Qs'
p913
aS'http://www.youtube.com/watch?v=bxIcg1lYSPQ'
p914
aS'http://www.youtube.com/watch?v=-3hmel6CxGE'
p915
aS'http://www.youtube.com/watch?v=ITD1LT3YfN1'
p916
aS'http://www.youtube.com/watch?v=n4CmldR1N5R'
p917
aS'http://www.youtube.com/watch?v=80Ji9qkS2Yv'
p918
aS'http://www.youtube.com/watch?v=Ix9OY4j5JWe'
p919
aS'http://www.youtube.com/watch?v=FW4dwi31o1t'
p920
aS'http://www.youtube.com/watch?v=DDTj3Y7ZoNy'
p921
aS'http://www.youtube.com/watch?v=22KtHzp-g6Z'
p922
aS'http://www.youtube.com/watch?v=HIrjl-LE76L'
p923
aS'http://www.youtube.com/watch?v=e5UuDYE41HB'
p924
aS'http://www.youtube.com/watch?v=Jfyz-cKzi-G'
p925
aS'http://www.youtube.com/watch?v=yT2V6PCswvZ'
p926
aS'http://www.youtube.com/watch?v=U_9-oNtEKXJ'
p927
aS'http://www.youtube.com/watch?v=Z-fN3jjKPYy'
p928
aS'http://www.youtube.com/watch?v=o2rnXb95Ugx'
p929
aS'http://www.youtube.com/watch?v=3kRdn02brX3'
p930
aS'http://www.youtube.com/watch?v=pGwGckWiK0y'
p931
aS'http://www.youtube.com/watch?v=pfWV66sO0up'
p932
aS'http://www.youtube.com/watch?v=7CwQpOu8N4P'
p933
aS'http://www.youtube.com/watch?v=WymIYNE0HCT'
p934
aS'http://www.youtube.com/watch?v=WO9MtdRniCf'
p935
aS'http://www.youtube.com/watch?v=DCfXV6weUo8'
p936
aS'http://www.youtube.com/watch?v=98hEdsEtUas'
p937
aS'http://www.youtube.com/watch?v=L0YcLuVlQBf'
p938
aS'http://www.youtube.com/watch?v=Npyy38OogiB'
p939
aS'http://www.youtube.com/watch?v=muJBaFNl0px'
p940
aS'http://www.youtube.com/watch?v=AXuqg1vD5fR'
p941
aS'http://www.youtube.com/watch?v=dRNfJtdSoFb'
p942
aS'http://www.youtube.com/watch?v=vA9hBiAmBKx'
p943
aS'http://www.youtube.com/watch?v=cvBJBnciN2i'
p944
aS'http://www.youtube.com/watch?v=D1tVGLeUJGG'
p945
aS'http://www.youtube.com/watch?v=-UZTlCEBcf5'
p946
aS'http://www.youtube.com/watch?v=l5_iKNdHfBy'
p947
aS'http://www.youtube.com/watch?v=Ii-16dvX0yQ'
p948
aS'http://www.youtube.com/watch?v=BmXRt2iOuAF'
p949
aS'http://www.youtube.com/watch?v=dRT8TY6Hzyy'
p950
aS'http://www.youtube.com/watch?v=EQzw0BH6jFQ'
p951
aS'http://www.youtube.com/watch?v=CXMLf3R-w6k'
p952
aS'http://www.youtube.com/watch?v=PnsGmdfFRIx'
p953
aS'http://www.youtube.com/watch?v=ekKFUIAc0eg'
p954
aS'http://www.youtube.com/watch?v=cbz1Y9LV6VZ'
p955
aS'http://www.youtube.com/watch?v=mMZWxRF0J9i'
p956
aS'http://www.youtube.com/watch?v=55kYXTSuejg'
p957
aS'http://www.youtube.com/watch?v=IrvjcKShMnA'
p958
aS'http://www.youtube.com/watch?v=Lz9iuvDpZM1'
p959
aS'http://www.youtube.com/watch?v=0T4nAzQpoeN'
p960
aS'http://www.youtube.com/watch?v=q0UIFiyrhZo'
p961
aS'http://www.youtube.com/watch?v=eoOicBNzHqv'
p962
aS'http://www.youtube.com/watch?v=31mk9zks7nZ'
p963
aS'http://www.youtube.com/watch?v=-eCbw-Grzjg'
p964
aS'http://www.youtube.com/watch?v=GpyDF7TSmMI'
p965
aS'http://www.youtube.com/watch?v=qzlyBZ5HAQ8'
p966
aS'http://www.youtube.com/watch?v=qU1qkKLPmG1'
p967
aS'http://www.youtube.com/watch?v=MCIPNvCvZ3b'
p968
aS'http://www.youtube.com/watch?v=okUVJ2tJut4'
p969
aS'http://www.youtube.com/watch?v=JHuZCEqknmo'
p970
aS'http://www.youtube.com/watch?v=5XoS5tV6j4L'
p971
aS'http://www.youtube.com/watch?v=0yLbWx7IsNY'
p972
aS'http://www.youtube.com/watch?v=SGP2ri0UYvx'
p973
aS'http://www.youtube.com/watch?v=K51UvFQaOiN'
p974
aS'http://www.youtube.com/watch?v=HqJpOk7SsTg'
p975
aS'http://www.youtube.com/watch?v=G6MpfKgANhy'
p976
aS'http://www.youtube.com/watch?v=-kT_xze-DYN'
p977
aS'http://www.youtube.com/watch?v=zT4FrGe0xq9'
p978
aS'http://www.youtube.com/watch?v=QPyrLLC79IO'
p979
aS'http://www.youtube.com/watch?v=oop_7jQrM-J'
p980
aS'http://www.youtube.com/watch?v=X_W5A-Y2MeZ'
p981
aS'http://www.youtube.com/watch?v=UpKMdaRKDmJ'
p982
aS'http://www.youtube.com/watch?v=xEKs5hb6EXY'
p983
aS'http://www.youtube.com/watch?v=iX1lqugdTEY'
p984
aS'http://www.youtube.com/watch?v=S94sxzHDB9m'
p985
aS'http://www.youtube.com/watch?v=l0IUBipL3Uo'
p986
aS'http://www.youtube.com/watch?v=p2YkSMLCAlH'
p987
aS'http://www.youtube.com/watch?v=qYVc0hxIy7y'
p988
aS'http://www.youtube.com/watch?v=f8GsCdeA82A'
p989
aS'http://www.youtube.com/watch?v=F9oVt7eVIgQ'
p990
aS'http://www.youtube.com/watch?v=F6gn7bsAxEA'
p991
aS'http://www.youtube.com/watch?v=ZWW3n7N58kO'
p992
aS'http://www.youtube.com/watch?v=5CQchWtSgC0'
p993
aS'http://www.youtube.com/watch?v=eEnV-jhnnh8'
p994
aS'http://www.youtube.com/watch?v=D2SZev9wYyh'
p995
aS'http://www.youtube.com/watch?v=bzWUevXQzoO'
p996
aS'http://www.youtube.com/watch?v=nXhDm1oE57J'
p997
aS'http://www.youtube.com/watch?v=kelKI4Tc0rt'
p998
aS'http://www.youtube.com/watch?v=LxqtNe_InWs'
p999
aS'http://www.youtube.com/watch?v=611BkQlKidf'
p1000
aS'http://www.youtube.com/watch?v=hBnfOlTzixc'
p1001
aS'http://www.youtube.com/watch?v=PZ-X-0pN8x8'
p1002
aS'http://www.youtube.com/watch?v=MaHSFeTzyW_'
p1003
aS'http://www.youtube.com/watch?v=ViLL0yQk1cx'
p1004
aS'http://www.youtube.com/watch?v=RdzsU-y5lTX'
p1005
aS'http://www.youtube.com/watch?v=wl_uka6bQ_H'
p1006
aS'http://www.youtube.com/watch?v=JtbAG3NQhCg'
p1007
aS'http://www.youtube.com/watch?v=hYCG_PUeBUI'
p1008
aS'http://www.youtube.com/watch?v=pIpCiEli7vg'
p1009
aS'http://www.youtube.com/watch?v=m4bBR-F3pe1'
p1010
aS'http://www.youtube.com/watch?v=NV_J485vH_d'
p1011
aS'http://www.youtube.com/watch?v=Hg7HDN91w-Q'
p1012
aS'http://www.youtube.com/watch?v=LRNd53YTMbt'
p1013
aS'http://www.youtube.com/watch?v=dXTcxIZznbd'
p1014
aS'http://www.youtube.com/watch?v=uO8IhfKv_sl'
p1015
aS'http://www.youtube.com/watch?v=RoYgjdKAjgh'
p1016
aS'http://www.youtube.com/watch?v=IPQ3Jzco9Gj'
p1017
aS'http://www.youtube.com/watch?v=cN2uO7r1b-f'
p1018
aS'http://www.youtube.com/watch?v=zDYJzhY8npa'
p1019
aS'http://www.youtube.com/watch?v=nQMzb5PzJoP'
p1020
aS'http://www.youtube.com/watch?v=bBUAjE9IZa1'
p1021
aS'http://www.youtube.com/watch?v=YuL0GTfbt5K'
p1022
aS'http://www.youtube.com/watch?v=6WhcQHNKoX8'
p1023
aS'http://www.youtube.com/watch?v=sVSFU0wiiDa'
p1024
aS'http://www.youtube.com/watch?v=co_rDyn69UW'
p1025
aS'http://www.youtube.com/watch?v=-8pFB2g5hN9'
p1026
aS'http://www.youtube.com/watch?v=uQDW346n5ay'
p1027
aS'http://www.youtube.com/watch?v=kQ1vWxUIOSn'
p1028
aS'http://www.youtube.com/watch?v=XGI5xJhUGyt'
p1029
aS'http://www.youtube.com/watch?v=rn5d_NiAup1'
p1030
aS'http://www.youtube.com/watch?v=YsQNDvhlFMI'
p1031
aS'http://www.youtube.com/watch?v=NhABjOxHouD'
p1032
aS'http://www.youtube.com/watch?v=JmBM_BnJ2sL'
p1033
aS'http://www.youtube.com/watch?v=RRUwvY39Rk7'
p1034
aS'http://www.youtube.com/watch?v=eHiKO4rKPQ-'
p1035
aS'http://www.youtube.com/watch?v=-fKu6yzcIgp'
p1036
aS'http://www.youtube.com/watch?v=yVcwtYSfhpN'
p1037
aS'http://www.youtube.com/watch?v=JlYCJieWC_O'
p1038
aS'http://www.youtube.com/watch?v=SD_E-1GzCFO'
p1039
aS'http://www.youtube.com/watch?v=cCY4PaEXT8e'
p1040
aS'http://www.youtube.com/watch?v=SkFNO1Vu5AJ'
p1041
aS'http://www.youtube.com/watch?v=BpeW38LvaSo'
p1042
aS'http://www.youtube.com/watch?v=rrrRnygolWv'
p1043
aS'http://www.youtube.com/watch?v=gVZD8gPPPTo'
p1044
aS'http://www.youtube.com/watch?v=Z3gtduRzaY8'
p1045
aS'http://www.youtube.com/watch?v=mAgOWlEh_c4'
p1046
aS'http://www.youtube.com/watch?v=DBmhKss8IyP'
p1047
aS'http://www.youtube.com/watch?v=dgdKD-ULY3w'
p1048
aS'http://www.youtube.com/watch?v=faoYoAKpVb_'
p1049
aS'http://www.youtube.com/watch?v=L7DYCSHlD5X'
p1050
aS'http://www.youtube.com/watch?v=1ELcwKArUfY'
p1051
aS'http://www.youtube.com/watch?v=5L9bZ-Hcm9H'
p1052
aS'http://www.youtube.com/watch?v=WCVUig5g9xN'
p1053
aS'http://www.youtube.com/watch?v=mBjhfpyD_ch'
p1054
aS'http://www.youtube.com/watch?v=hCeTjf-0quW'
p1055
aS'http://www.youtube.com/watch?v=sQLqnpRdzdU'
p1056
aS'http://www.youtube.com/watch?v=6yOrQAI2cum'
p1057
aS'http://www.youtube.com/watch?v=55HyN9NAKq9'
p1058
aS'http://www.youtube.com/watch?v=_hDJiGzK1e3'
p1059
aS'http://www.youtube.com/watch?v=nlT3fYKn75R'
p1060
aS'http://www.youtube.com/watch?v=Hvyd8mdTXdE'
p1061
aS'http://www.youtube.com/watch?v=VjTjyIQ4vja'
p1062
aS'http://www.youtube.com/watch?v=YLSFqc32YJA'
p1063
aS'http://www.youtube.com/watch?v=NugaGm8wVFa'
p1064
aS'http://www.youtube.com/watch?v=txbZkuyZIE-'
p1065
aS'http://www.youtube.com/watch?v=UTLXBOn8Z8H'
p1066
aS'http://www.youtube.com/watch?v=otAY1nyvDRc'
p1067
aS'http://www.youtube.com/watch?v=9Apgpl-k6qM'
p1068
aS'http://www.youtube.com/watch?v=H0U9B8laEif'
p1069
aS'http://www.youtube.com/watch?v=WM0X8Ji3Ob2'
p1070
aS'http://www.youtube.com/watch?v=9t-kdoOXwHz'
p1071
aS'http://www.youtube.com/watch?v=nKM0_irsMq4'
p1072
a.
